target datalayout = "e-m:e-p270:32:32-p271:32:32-p272:64:64-i64:64-i128:128-f80:128-n8:16:32:64-S128"
target triple = "x86_64-pc-linux-gnu"

%struct.BitmapOr = type { %struct.Plan, i8, ptr }
%struct.Plan = type { i32, i32, double, double, double, i32, i8, i8, i8, i32, ptr, ptr, ptr, ptr, ptr, ptr, ptr }
%struct.BitmapOrState = type { %struct.PlanState, ptr, i32 }
%struct.PlanState = type { i32, ptr, ptr, ptr, ptr, ptr, ptr, ptr, ptr, ptr, ptr, ptr, ptr, ptr, ptr, ptr, ptr, ptr, i8, ptr, ptr, ptr, ptr, ptr, i8, i8, i8, i8, i8, i8, i8, i8 }
%struct.Node = type { i32 }
%struct.EState = type { i32, i32, ptr, ptr, ptr, i32, ptr, ptr, ptr, ptr, ptr, ptr, ptr, ptr, ptr, ptr, i32, ptr, ptr, ptr, ptr, ptr, ptr, ptr, ptr, ptr, ptr, i64, i64, i32, i32, i8, ptr, ptr, ptr, ptr, ptr, i8, i32, i32, ptr, i32, ptr, ptr, ptr, ptr }
%struct.BitmapIndexScanState = type { %struct.ScanState, ptr, ptr, i32, ptr, i32, ptr, i32, i8, ptr, ptr, ptr }
%struct.ScanState = type { %struct.PlanState, ptr, ptr, ptr }

@work_mem = external global i32, align 4
@.str = private unnamed_addr constant [33 x i8] c"unrecognized result from subplan\00", align 1
@.str.1 = private unnamed_addr constant [15 x i8] c"nodeBitmapOr.c\00", align 1
@__func__.MultiExecBitmapOr = private unnamed_addr constant [18 x i8] c"MultiExecBitmapOr\00", align 1
@.str.2 = private unnamed_addr constant [37 x i8] c"BitmapOr doesn't support zero inputs\00", align 1

; Function Attrs: nounwind uwtable
define dso_local ptr @MultiExecBitmapOr(ptr noundef %0) #0 {
  %2 = alloca ptr, align 8
  %3 = alloca ptr, align 8
  %4 = alloca i32, align 4
  %5 = alloca i32, align 4
  %6 = alloca ptr, align 8
  %7 = alloca ptr, align 8
  %8 = alloca ptr, align 8
  store ptr %0, ptr %2, align 8
  call void @llvm.lifetime.start.p0(i64 8, ptr %3) #6
  call void @llvm.lifetime.start.p0(i64 4, ptr %4) #6
  call void @llvm.lifetime.start.p0(i64 4, ptr %5) #6
  call void @llvm.lifetime.start.p0(i64 8, ptr %6) #6
  store ptr null, ptr %6, align 8
  %9 = load ptr, ptr %2, align 8
  %10 = getelementptr inbounds nuw %struct.BitmapOrState, ptr %9, i32 0, i32 0
  %11 = getelementptr inbounds nuw %struct.PlanState, ptr %10, i32 0, i32 5
  %12 = load ptr, ptr %11, align 8
  %13 = icmp ne ptr %12, null
  br i1 %13, label %14, label %19

14:                                               ; preds = %1
  %15 = load ptr, ptr %2, align 8
  %16 = getelementptr inbounds nuw %struct.BitmapOrState, ptr %15, i32 0, i32 0
  %17 = getelementptr inbounds nuw %struct.PlanState, ptr %16, i32 0, i32 5
  %18 = load ptr, ptr %17, align 8
  call void @InstrStartNode(ptr noundef %18)
  br label %19

19:                                               ; preds = %14, %1
  %20 = load ptr, ptr %2, align 8
  %21 = getelementptr inbounds nuw %struct.BitmapOrState, ptr %20, i32 0, i32 1
  %22 = load ptr, ptr %21, align 8
  store ptr %22, ptr %3, align 8
  %23 = load ptr, ptr %2, align 8
  %24 = getelementptr inbounds nuw %struct.BitmapOrState, ptr %23, i32 0, i32 2
  %25 = load i32, ptr %24, align 8
  store i32 %25, ptr %4, align 4
  store i32 0, ptr %5, align 4
  br label %26

26:                                               ; preds = %118, %19
  %27 = load i32, ptr %5, align 4
  %28 = load i32, ptr %4, align 4
  %29 = icmp slt i32 %27, %28
  br i1 %29, label %30, label %121

30:                                               ; preds = %26
  call void @llvm.lifetime.start.p0(i64 8, ptr %7) #6
  %31 = load ptr, ptr %3, align 8
  %32 = load i32, ptr %5, align 4
  %33 = sext i32 %32 to i64
  %34 = getelementptr inbounds ptr, ptr %31, i64 %33
  %35 = load ptr, ptr %34, align 8
  store ptr %35, ptr %7, align 8
  call void @llvm.lifetime.start.p0(i64 8, ptr %8) #6
  %36 = load ptr, ptr %7, align 8
  %37 = getelementptr inbounds nuw %struct.Node, ptr %36, i32 0, i32 0
  %38 = load i32, ptr %37, align 4
  %39 = icmp eq i32 %38, 406
  br i1 %39, label %40, label %86

40:                                               ; preds = %30
  %41 = load ptr, ptr %6, align 8
  %42 = icmp eq ptr %41, null
  br i1 %42, label %43, label %65

43:                                               ; preds = %40
  %44 = load i32, ptr @work_mem, align 4
  %45 = sext i32 %44 to i64
  %46 = mul i64 %45, 1024
  %47 = load ptr, ptr %2, align 8
  %48 = getelementptr inbounds nuw %struct.BitmapOrState, ptr %47, i32 0, i32 0
  %49 = getelementptr inbounds nuw %struct.PlanState, ptr %48, i32 0, i32 1
  %50 = load ptr, ptr %49, align 8
  %51 = getelementptr inbounds nuw %struct.BitmapOr, ptr %50, i32 0, i32 1
  %52 = load i8, ptr %51, align 8, !range !6, !noundef !7
  %53 = trunc i8 %52 to i1
  br i1 %53, label %54, label %61

54:                                               ; preds = %43
  %55 = load ptr, ptr %2, align 8
  %56 = getelementptr inbounds nuw %struct.BitmapOrState, ptr %55, i32 0, i32 0
  %57 = getelementptr inbounds nuw %struct.PlanState, ptr %56, i32 0, i32 2
  %58 = load ptr, ptr %57, align 8
  %59 = getelementptr inbounds nuw %struct.EState, ptr %58, i32 0, i32 40
  %60 = load ptr, ptr %59, align 8
  br label %62

61:                                               ; preds = %43
  br label %62

62:                                               ; preds = %61, %54
  %63 = phi ptr [ %60, %54 ], [ null, %61 ]
  %64 = call ptr @tbm_create(i64 noundef %46, ptr noundef %63)
  store ptr %64, ptr %6, align 8
  br label %65

65:                                               ; preds = %62, %40
  %66 = load ptr, ptr %6, align 8
  %67 = load ptr, ptr %7, align 8
  %68 = getelementptr inbounds nuw %struct.BitmapIndexScanState, ptr %67, i32 0, i32 1
  store ptr %66, ptr %68, align 8
  %69 = load ptr, ptr %7, align 8
  %70 = call ptr @MultiExecProcNode(ptr noundef %69)
  store ptr %70, ptr %8, align 8
  %71 = load ptr, ptr %8, align 8
  %72 = load ptr, ptr %6, align 8
  %73 = icmp ne ptr %71, %72
  br i1 %73, label %74, label %85

74:                                               ; preds = %65
  br label %75

75:                                               ; preds = %74
  br i1 true, label %76, label %78

76:                                               ; preds = %75
  %77 = call zeroext i1 @errstart_cold(i32 noundef 21, ptr noundef null) #7
  br i1 %77, label %80, label %82

78:                                               ; preds = %75
  %79 = call zeroext i1 @errstart(i32 noundef 21, ptr noundef null)
  br i1 %79, label %80, label %82

80:                                               ; preds = %78, %76
  %81 = call i32 (ptr, ...) @errmsg_internal(ptr noundef @.str)
  call void @errfinish(ptr noundef @.str.1, i32 noundef 156, ptr noundef @__func__.MultiExecBitmapOr)
  br label %82

82:                                               ; preds = %80, %78, %76
  unreachable

83:                                               ; No predecessors!
  br label %84

84:                                               ; preds = %83
  br label %85

85:                                               ; preds = %84, %65
  br label %117

86:                                               ; preds = %30
  %87 = load ptr, ptr %7, align 8
  %88 = call ptr @MultiExecProcNode(ptr noundef %87)
  store ptr %88, ptr %8, align 8
  %89 = load ptr, ptr %8, align 8
  %90 = icmp ne ptr %89, null
  br i1 %90, label %91, label %96

91:                                               ; preds = %86
  %92 = load ptr, ptr %8, align 8
  %93 = getelementptr inbounds nuw %struct.Node, ptr %92, i32 0, i32 0
  %94 = load i32, ptr %93, align 4
  %95 = icmp eq i32 %94, 477
  br i1 %95, label %107, label %96

96:                                               ; preds = %91, %86
  br label %97

97:                                               ; preds = %96
  br i1 true, label %98, label %100

98:                                               ; preds = %97
  %99 = call zeroext i1 @errstart_cold(i32 noundef 21, ptr noundef null) #7
  br i1 %99, label %102, label %104

100:                                              ; preds = %97
  %101 = call zeroext i1 @errstart(i32 noundef 21, ptr noundef null)
  br i1 %101, label %102, label %104

102:                                              ; preds = %100, %98
  %103 = call i32 (ptr, ...) @errmsg_internal(ptr noundef @.str)
  call void @errfinish(ptr noundef @.str.1, i32 noundef 164, ptr noundef @__func__.MultiExecBitmapOr)
  br label %104

104:                                              ; preds = %102, %100, %98
  unreachable

105:                                              ; No predecessors!
  br label %106

106:                                              ; preds = %105
  br label %107

107:                                              ; preds = %106, %91
  %108 = load ptr, ptr %6, align 8
  %109 = icmp eq ptr %108, null
  br i1 %109, label %110, label %112

110:                                              ; preds = %107
  %111 = load ptr, ptr %8, align 8
  store ptr %111, ptr %6, align 8
  br label %116

112:                                              ; preds = %107
  %113 = load ptr, ptr %6, align 8
  %114 = load ptr, ptr %8, align 8
  call void @tbm_union(ptr noundef %113, ptr noundef %114)
  %115 = load ptr, ptr %8, align 8
  call void @tbm_free(ptr noundef %115)
  br label %116

116:                                              ; preds = %112, %110
  br label %117

117:                                              ; preds = %116, %85
  call void @llvm.lifetime.end.p0(i64 8, ptr %8) #6
  call void @llvm.lifetime.end.p0(i64 8, ptr %7) #6
  br label %118

118:                                              ; preds = %117
  %119 = load i32, ptr %5, align 4
  %120 = add i32 %119, 1
  store i32 %120, ptr %5, align 4
  br label %26, !llvm.loop !8

121:                                              ; preds = %26
  %122 = load ptr, ptr %6, align 8
  %123 = icmp eq ptr %122, null
  br i1 %123, label %124, label %135

124:                                              ; preds = %121
  br label %125

125:                                              ; preds = %124
  br i1 true, label %126, label %128

126:                                              ; preds = %125
  %127 = call zeroext i1 @errstart_cold(i32 noundef 21, ptr noundef null) #7
  br i1 %127, label %130, label %132

128:                                              ; preds = %125
  %129 = call zeroext i1 @errstart(i32 noundef 21, ptr noundef null)
  br i1 %129, label %130, label %132

130:                                              ; preds = %128, %126
  %131 = call i32 (ptr, ...) @errmsg_internal(ptr noundef @.str.2)
  call void @errfinish(ptr noundef @.str.1, i32 noundef 178, ptr noundef @__func__.MultiExecBitmapOr)
  br label %132

132:                                              ; preds = %130, %128, %126
  unreachable

133:                                              ; No predecessors!
  br label %134

134:                                              ; preds = %133
  br label %135

135:                                              ; preds = %134, %121
  %136 = load ptr, ptr %2, align 8
  %137 = getelementptr inbounds nuw %struct.BitmapOrState, ptr %136, i32 0, i32 0
  %138 = getelementptr inbounds nuw %struct.PlanState, ptr %137, i32 0, i32 5
  %139 = load ptr, ptr %138, align 8
  %140 = icmp ne ptr %139, null
  br i1 %140, label %141, label %146

141:                                              ; preds = %135
  %142 = load ptr, ptr %2, align 8
  %143 = getelementptr inbounds nuw %struct.BitmapOrState, ptr %142, i32 0, i32 0
  %144 = getelementptr inbounds nuw %struct.PlanState, ptr %143, i32 0, i32 5
  %145 = load ptr, ptr %144, align 8
  call void @InstrStopNode(ptr noundef %145, double noundef 0.000000e+00)
  br label %146

146:                                              ; preds = %141, %135
  %147 = load ptr, ptr %6, align 8
  call void @llvm.lifetime.end.p0(i64 8, ptr %6) #6
  call void @llvm.lifetime.end.p0(i64 4, ptr %5) #6
  call void @llvm.lifetime.end.p0(i64 4, ptr %4) #6
  call void @llvm.lifetime.end.p0(i64 8, ptr %3) #6
  ret ptr %147
}