; Function Attrs: nounwind uwtable
define dso_local nonnull ptr @MultiExecBitmapOr(ptr noundef readonly captures(none) %0) local_unnamed_addr #0 {
  %2 = getelementptr inbounds nuw i8, ptr %0, i64 40
  %3 = load ptr, ptr %2, align 8
  %.not = icmp eq ptr %3, null
  br i1 %.not, label %5, label %4

4:                                                ; preds = %1
  tail call void @InstrStartNode(ptr noundef nonnull %3) #5
  br label %5

5:                                                ; preds = %4, %1
  %6 = getelementptr inbounds nuw i8, ptr %0, i64 200
  %7 = load ptr, ptr %6, align 8
  %8 = getelementptr inbounds nuw i8, ptr %0, i64 208
  %9 = load i32, ptr %8, align 8
  %10 = icmp sgt i32 %9, 0
  br i1 %10, label %.lr.ph, label %._crit_edge.thread

.lr.ph:                                           ; preds = %5
  %11 = getelementptr inbounds nuw i8, ptr %0, i64 8
  %12 = getelementptr inbounds nuw i8, ptr %0, i64 16
  %wide.trip.count = zext nneg i32 %9 to i64
  br label %13

13:                                               ; preds = %.lr.ph, %52
  %indvars.iv = phi i64 [ 0, %.lr.ph ], [ %indvars.iv.next, %52 ]
  %.02938 = phi ptr [ null, %.lr.ph ], [ %.2, %52 ]
  %14 = getelementptr inbounds nuw ptr, ptr %7, i64 %indvars.iv
  %15 = load ptr, ptr %14, align 8
  %16 = load i32, ptr %15, align 4
  %17 = icmp eq i32 %16, 406
  br i1 %17, label %18, label %41

18:                                               ; preds = %13
  %19 = icmp eq ptr %.02938, null
  br i1 %19, label %20, label %35

20:                                               ; preds = %18
  %21 = load i32, ptr @work_mem, align 4
  %22 = sext i32 %21 to i64
  %23 = shl nsw i64 %22, 10
  %24 = load ptr, ptr %11, align 8
  %25 = getelementptr inbounds nuw i8, ptr %24, i64 104
  %26 = load i8, ptr %25, align 8, !range !4, !noundef !5
  %27 = trunc nuw i8 %26 to i1
  br i1 %27, label %28, label %32

28:                                               ; preds = %20
  %29 = load ptr, ptr %12, align 8
  %30 = getelementptr inbounds nuw i8, ptr %29, i64 296
  %31 = load ptr, ptr %30, align 8
  br label %32

32:                                               ; preds = %20, %28
  %33 = phi ptr [ %31, %28 ], [ null, %20 ]
  %34 = tail call ptr @tbm_create(i64 noundef %23, ptr noundef %33) #5
  br label %35

35:                                               ; preds = %32, %18
  %.1 = phi ptr [ %34, %32 ], [ %.02938, %18 ]
  %36 = getelementptr inbounds nuw i8, ptr %15, i64 224
  store ptr %.1, ptr %36, align 8
  %37 = tail call ptr @MultiExecProcNode(ptr noundef nonnull %15) #5
  %.not35 = icmp eq ptr %37, %.1
  br i1 %.not35, label %52, label %38

38:                                               ; preds = %35
  %39 = tail call zeroext i1 @errstart_cold(i32 noundef 21, ptr noundef null) #6
  tail call void @llvm.assume(i1 %39)
  %40 = tail call i32 (ptr, ...) @errmsg_internal(ptr noundef nonnull @.str) #5
  tail call void @errfinish(ptr noundef nonnull @.str.1, i32 noundef 156, ptr noundef nonnull @__func__.MultiExecBitmapOr) #5
  unreachable

41:                                               ; preds = %13
  %42 = tail call ptr @MultiExecProcNode(ptr noundef nonnull %15) #5
  %.not34 = icmp eq ptr %42, null
  br i1 %.not34, label %46, label %43

43:                                               ; preds = %41
  %44 = load i32, ptr %42, align 4
  %45 = icmp eq i32 %44, 477
  br i1 %45, label %49, label %46

46:                                               ; preds = %43, %41
  %47 = tail call zeroext i1 @errstart_cold(i32 noundef 21, ptr noundef null) #6
  tail call void @llvm.assume(i1 %47)
  %48 = tail call i32 (ptr, ...) @errmsg_internal(ptr noundef nonnull @.str) #5
  tail call void @errfinish(ptr noundef nonnull @.str.1, i32 noundef 164, ptr noundef nonnull @__func__.MultiExecBitmapOr) #5
  unreachable

49:                                               ; preds = %43
  %50 = icmp eq ptr %.02938, null
  br i1 %50, label %52, label %51

51:                                               ; preds = %49
  tail call void @tbm_union(ptr noundef nonnull %.02938, ptr noundef nonnull %42) #5
  tail call void @tbm_free(ptr noundef nonnull %42) #5
  br label %52

52:                                               ; preds = %49, %51, %35
  %.2 = phi ptr [ %.1, %35 ], [ %.02938, %51 ], [ %42, %49 ]
  %indvars.iv.next = add nuw nsw i64 %indvars.iv, 1
  %exitcond.not = icmp eq i64 %indvars.iv.next, %wide.trip.count
  br i1 %exitcond.not, label %._crit_edge, label %13, !llvm.loop !6

._crit_edge:                                      ; preds = %52
  %53 = icmp eq ptr %.2, null
  br i1 %53, label %._crit_edge.thread, label %56

._crit_edge.thread:                               ; preds = %5, %._crit_edge
  %54 = tail call zeroext i1 @errstart_cold(i32 noundef 21, ptr noundef null) #6
  tail call void @llvm.assume(i1 %54)
  %55 = tail call i32 (ptr, ...) @errmsg_internal(ptr noundef nonnull @.str.2) #5
  tail call void @errfinish(ptr noundef nonnull @.str.1, i32 noundef 178, ptr noundef nonnull @__func__.MultiExecBitmapOr) #5
  unreachable

56:                                               ; preds = %._crit_edge
  %57 = load ptr, ptr %2, align 8
  %.not33 = icmp eq ptr %57, null
  br i1 %.not33, label %59, label %58

58:                                               ; preds = %56
  tail call void @InstrStopNode(ptr noundef nonnull %57, double noundef 0.000000e+00) #5
  br label %59

59:                                               ; preds = %58, %56
  ret ptr %.2
}